target datalayout = "e-m:e-p270:32:32-p271:32:32-p272:64:64-i64:64-i128:128-f80:128-n8:16:32:64-S128"
target triple = "x86_64-pc-linux-gnu"

%"class.boost::filesystem::path" = type { %"class.std::__cxx11::basic_string" }
%"class.std::__cxx11::basic_string" = type { %"struct.std::__cxx11::basic_string<char>::_Alloc_hider", i64, %union.anon }
%"struct.std::__cxx11::basic_string<char>::_Alloc_hider" = type { ptr }
%union.anon = type { i64, [8 x i8] }
%"class.boost::system::error_code" = type { %union.anon.1, i64 }
%union.anon.1 = type { %"struct.boost::system::error_code::data" }
%"struct.boost::system::error_code::data" = type { i32, ptr }

@.str.8 = private unnamed_addr constant [44 x i8] c"boost::filesystem::create_directory_symlink\00", align 1

; Function Attrs: noinline noreturn nounwind uwtable
define linkonce_odr hidden void @__clang_call_terminate(ptr noundef %0) #3 comdat {
  %2 = call ptr @__cxa_begin_catch(ptr %0) #14
  call void @_ZSt9terminatev() #20
  unreachable
}

; Function Attrs: mustprogress nounwind uwtable
define available_externally noundef ptr @_ZNKSt7__cxx1112basic_stringIcSt11char_traitsIcESaIcEE7_M_dataEv(ptr noundef nonnull align 8 dereferenceable(32) %0) #2 align 2 {
  %2 = alloca ptr, align 8
  store ptr %0, ptr %2, align 8, !tbaa !3
  %3 = load ptr, ptr %2, align 8
  %4 = getelementptr inbounds nuw %"class.std::__cxx11::basic_string", ptr %3, i32 0, i32 0
  %5 = getelementptr inbounds nuw %"struct.std::__cxx11::basic_string<char>::_Alloc_hider", ptr %4, i32 0, i32 0
  %6 = load ptr, ptr %5, align 8, !tbaa !90
  ret ptr %6
}

; Function Attrs: mustprogress nounwind uwtable
define available_externally noundef ptr @_ZNKSt7__cxx1112basic_stringIcSt11char_traitsIcESaIcEE5c_strEv(ptr noundef nonnull align 8 dereferenceable(32) %0) #2 align 2 personality ptr @__gxx_personality_v0 {
  %2 = alloca ptr, align 8
  store ptr %0, ptr %2, align 8, !tbaa !3
  %3 = load ptr, ptr %2, align 8
  %4 = invoke noundef ptr @_ZNKSt7__cxx1112basic_stringIcSt11char_traitsIcESaIcEE7_M_dataEv(ptr noundef nonnull align 8 dereferenceable(32) %3)
          to label %5 unwind label %6

5:                                                ; preds = %1
  ret ptr %4

6:                                                ; preds = %1
  %7 = landingpad { ptr, i32 }
          catch ptr null
  %8 = extractvalue { ptr, i32 } %7, 0
  call void @__clang_call_terminate(ptr %8) #20
  unreachable
}

; Function Attrs: mustprogress nounwind uwtable
define linkonce_odr hidden void @_ZN5boost6system10error_codeC2Ev(ptr noundef nonnull align 8 dereferenceable(24) %0) unnamed_addr #2 comdat align 2 {
  %2 = alloca ptr, align 8
  store ptr %0, ptr %2, align 8, !tbaa !3
  %3 = load ptr, ptr %2, align 8
  %4 = getelementptr inbounds nuw %"class.boost::system::error_code", ptr %3, i32 0, i32 0
  call void @llvm.memset.p0.i64(ptr align 8 %4, i8 0, i64 16, i1 false)
  %5 = getelementptr inbounds nuw %"class.boost::system::error_code", ptr %3, i32 0, i32 1
  store i64 0, ptr %5, align 8, !tbaa !32
  ret void
}

; Function Attrs: mustprogress nounwind uwtable
define linkonce_odr hidden noundef ptr @_ZNK5boost10filesystem4path5c_strEv(ptr noundef nonnull align 8 dereferenceable(32) %0) #2 comdat align 2 {
  %2 = alloca ptr, align 8
  store ptr %0, ptr %2, align 8, !tbaa !3
  %3 = load ptr, ptr %2, align 8
  %4 = getelementptr inbounds nuw %"class.boost::filesystem::path", ptr %3, i32 0, i32 0
  %5 = call noundef ptr @_ZNKSt7__cxx1112basic_stringIcSt11char_traitsIcESaIcEE5c_strEv(ptr noundef nonnull align 8 dereferenceable(32) %4) #14
  ret ptr %5
}

; Function Attrs: mustprogress nounwind uwtable
define linkonce_odr hidden void @_ZN5boost6system10error_code5clearEv(ptr noundef nonnull align 8 dereferenceable(24) %0) #2 comdat align 2 {
  %2 = alloca ptr, align 8
  %3 = alloca %"class.boost::system::error_code", align 8
  store ptr %0, ptr %2, align 8, !tbaa !3
  %4 = load ptr, ptr %2, align 8
  call void @llvm.lifetime.start.p0(i64 24, ptr %3) #14
  call void @_ZN5boost6system10error_codeC2Ev(ptr noundef nonnull align 8 dereferenceable(24) %3) #14
  call void @llvm.memcpy.p0.p0.i64(ptr align 8 %4, ptr align 8 %3, i64 24, i1 false), !tbaa.struct !21
  call void @llvm.lifetime.end.p0(i64 24, ptr %3) #14
  ret void
}

; Function Attrs: mustprogress uwtable
define void @_ZN5boost10filesystem6detail24create_directory_symlinkERKNS0_4pathES4_PNS_6system10error_codeE(ptr noundef nonnull align 8 dereferenceable(32) %0, ptr noundef nonnull align 8 dereferenceable(32) %1, ptr noundef %2) #5 {
  %4 = alloca ptr, align 8
  %5 = alloca ptr, align 8
  %6 = alloca ptr, align 8
  %7 = alloca i32, align 4
  store ptr %0, ptr %4, align 8, !tbaa !3
  store ptr %1, ptr %5, align 8, !tbaa !3
  store ptr %2, ptr %6, align 8, !tbaa !3
  %8 = load ptr, ptr %6, align 8, !tbaa !3
  %9 = icmp ne ptr %8, null
  br i1 %9, label %10, label %12

10:                                               ; preds = %3
  %11 = load ptr, ptr %6, align 8, !tbaa !3
  call void @_ZN5boost6system10error_code5clearEv(ptr noundef nonnull align 8 dereferenceable(24) %11) #14
  br label %12

12:                                               ; preds = %10, %3
  call void @llvm.lifetime.start.p0(i64 4, ptr %7) #14
  %13 = load ptr, ptr %4, align 8, !tbaa !3
  %14 = call noundef ptr @_ZNK5boost10filesystem4path5c_strEv(ptr noundef nonnull align 8 dereferenceable(32) %13) #14
  %15 = load ptr, ptr %5, align 8, !tbaa !3
  %16 = call noundef ptr @_ZNK5boost10filesystem4path5c_strEv(ptr noundef nonnull align 8 dereferenceable(32) %15) #14
  %17 = call i32 @symlink(ptr noundef %14, ptr noundef %16) #14
  store i32 %17, ptr %7, align 4, !tbaa !7
  %18 = load i32, ptr %7, align 4, !tbaa !7
  %19 = icmp slt i32 %18, 0
  %20 = zext i1 %19 to i64
  %21 = call i64 @llvm.expect.i64(i64 %20, i64 0)
  %22 = icmp ne i64 %21, 0
  br i1 %22, label %23, label %30

23:                                               ; preds = %12
  %24 = call ptr @__errno_location() #22
  %25 = load i32, ptr %24, align 4, !tbaa !7
  store i32 %25, ptr %7, align 4, !tbaa !7
  %26 = load i32, ptr %7, align 4, !tbaa !7
  %27 = load ptr, ptr %4, align 8, !tbaa !3
  %28 = load ptr, ptr %5, align 8, !tbaa !3
  %29 = load ptr, ptr %6, align 8, !tbaa !3
  call void @_ZN5boost10filesystem10emit_errorEiRKNS0_4pathES3_PNS_6system10error_codeEPKc(i32 noundef %26, ptr noundef nonnull align 8 dereferenceable(32) %27, ptr noundef nonnull align 8 dereferenceable(32) %28, ptr noundef %29, ptr noundef @.str.8)
  br label %30

30:                                               ; preds = %23, %12
  call void @llvm.lifetime.end.p0(i64 4, ptr %7) #14
  ret void
}